target datalayout = "e-m:e-p270:32:32-p271:32:32-p272:64:64-i64:64-i128:128-f80:128-n8:16:32:64-S128"
target triple = "x86_64-pc-linux-gnu"

@hf_ipmi_se_17_seq = internal global i32 0, align 4
@hf_ipmi_se_17_tstamp = internal global i32 0, align 4
@hf_ipmi_se_17_evsrc = internal global i32 0, align 4
@hf_ipmi_se_17_sensor_dev = internal global i32 0, align 4
@hf_ipmi_se_17_sensor_num = internal global i32 0, align 4
@hf_ipmi_se_17_evdata1 = internal global i32 0, align 4
@hf_ipmi_se_17_evdata2 = internal global i32 0, align 4
@hf_ipmi_se_17_evdata3 = internal global i32 0, align 4

; Function Attrs: null_pointer_is_valid sspstrong uwtable
define internal void @rq17(ptr noundef %0, ptr noundef %1, ptr noundef %2) #0 {
  %4 = alloca ptr, align 8
  %5 = alloca ptr, align 8
  %6 = alloca ptr, align 8
  store ptr %0, ptr %4, align 8
  store ptr %1, ptr %5, align 8
  store ptr %2, ptr %6, align 8
  %7 = load ptr, ptr %6, align 8
  %8 = load i32, ptr @hf_ipmi_se_17_seq, align 4
  %9 = load ptr, ptr %4, align 8
  %10 = call ptr @proto_tree_add_item(ptr noundef %7, i32 noundef %8, ptr noundef %9, i32 noundef 0, i32 noundef 2, i32 noundef -2147483648)
  %11 = load ptr, ptr %5, align 8
  %12 = load ptr, ptr %6, align 8
  %13 = load i32, ptr @hf_ipmi_se_17_tstamp, align 4
  %14 = load ptr, ptr %4, align 8
  call void @ipmi_add_timestamp(ptr noundef %11, ptr noundef %12, i32 noundef %13, ptr noundef %14, i32 noundef 2)
  %15 = load ptr, ptr %6, align 8
  %16 = load i32, ptr @hf_ipmi_se_17_evsrc, align 4
  %17 = load ptr, ptr %4, align 8
  %18 = call ptr @proto_tree_add_item(ptr noundef %15, i32 noundef %16, ptr noundef %17, i32 noundef 6, i32 noundef 1, i32 noundef -2147483648)
  %19 = load ptr, ptr %6, align 8
  %20 = load i32, ptr @hf_ipmi_se_17_sensor_dev, align 4
  %21 = load ptr, ptr %4, align 8
  %22 = call ptr @proto_tree_add_item(ptr noundef %19, i32 noundef %20, ptr noundef %21, i32 noundef 7, i32 noundef 1, i32 noundef -2147483648)
  %23 = load ptr, ptr %6, align 8
  %24 = load i32, ptr @hf_ipmi_se_17_sensor_num, align 4
  %25 = load ptr, ptr %4, align 8
  %26 = call ptr @proto_tree_add_item(ptr noundef %23, i32 noundef %24, ptr noundef %25, i32 noundef 8, i32 noundef 1, i32 noundef -2147483648)
  %27 = load ptr, ptr %6, align 8
  %28 = load i32, ptr @hf_ipmi_se_17_evdata1, align 4
  %29 = load ptr, ptr %4, align 8
  %30 = call ptr @proto_tree_add_item(ptr noundef %27, i32 noundef %28, ptr noundef %29, i32 noundef 9, i32 noundef 1, i32 noundef -2147483648)
  %31 = load ptr, ptr %6, align 8
  %32 = load i32, ptr @hf_ipmi_se_17_evdata2, align 4
  %33 = load ptr, ptr %4, align 8
  %34 = call ptr @proto_tree_add_item(ptr noundef %31, i32 noundef %32, ptr noundef %33, i32 noundef 10, i32 noundef 1, i32 noundef -2147483648)
  %35 = load ptr, ptr %6, align 8
  %36 = load i32, ptr @hf_ipmi_se_17_evdata3, align 4
  %37 = load ptr, ptr %4, align 8
  %38 = call ptr @proto_tree_add_item(ptr noundef %35, i32 noundef %36, ptr noundef %37, i32 noundef 11, i32 noundef 1, i32 noundef -2147483648)
  ret void
}