; Function Attrs: null_pointer_is_valid sspstrong uwtable
define internal void @rq17(ptr noundef %0, ptr noundef %1, ptr noundef %2) #0 {
  %4 = load i32, ptr @hf_ipmi_se_17_seq, align 4
  %5 = tail call ptr @proto_tree_add_item(ptr noundef %2, i32 noundef %4, ptr noundef %0, i32 noundef 0, i32 noundef 2, i32 noundef -2147483648)
  %6 = load i32, ptr @hf_ipmi_se_17_tstamp, align 4
  tail call void @ipmi_add_timestamp(ptr noundef %1, ptr noundef %2, i32 noundef %6, ptr noundef %0, i32 noundef 2)
  %7 = load i32, ptr @hf_ipmi_se_17_evsrc, align 4
  %8 = tail call ptr @proto_tree_add_item(ptr noundef %2, i32 noundef %7, ptr noundef %0, i32 noundef 6, i32 noundef 1, i32 noundef -2147483648)
  %9 = load i32, ptr @hf_ipmi_se_17_sensor_dev, align 4
  %10 = tail call ptr @proto_tree_add_item(ptr noundef %2, i32 noundef %9, ptr noundef %0, i32 noundef 7, i32 noundef 1, i32 noundef -2147483648)
  %11 = load i32, ptr @hf_ipmi_se_17_sensor_num, align 4
  %12 = tail call ptr @proto_tree_add_item(ptr noundef %2, i32 noundef %11, ptr noundef %0, i32 noundef 8, i32 noundef 1, i32 noundef -2147483648)
  %13 = load i32, ptr @hf_ipmi_se_17_evdata1, align 4
  %14 = tail call ptr @proto_tree_add_item(ptr noundef %2, i32 noundef %13, ptr noundef %0, i32 noundef 9, i32 noundef 1, i32 noundef -2147483648)
  %15 = load i32, ptr @hf_ipmi_se_17_evdata2, align 4
  %16 = tail call ptr @proto_tree_add_item(ptr noundef %2, i32 noundef %15, ptr noundef %0, i32 noundef 10, i32 noundef 1, i32 noundef -2147483648)
  %17 = load i32, ptr @hf_ipmi_se_17_evdata3, align 4
  %18 = tail call ptr @proto_tree_add_item(ptr noundef %2, i32 noundef %17, ptr noundef %0, i32 noundef 11, i32 noundef 1, i32 noundef -2147483648)
  ret void
}